target datalayout = "e-m:e-p270:32:32-p271:32:32-p272:64:64-i64:64-i128:128-f80:128-n8:16:32:64-S128"
target triple = "x86_64-pc-linux-gnu"

%struct._packet_info = type { ptr, ptr, i32, i32, %struct.nstime_t, %struct.nstime_t, %struct.nstime_t, i8, ptr, ptr, ptr, ptr, %struct._address, %struct._address, %struct._address, %struct._address, %struct._address, %struct._address, i32, ptr, i8, [3 x i8], %struct.anon, i32, i32, i32, i32, ptr, i8, ptr, ptr, i16, i16, i32, i32, i16, i32, i32, ptr, ptr, ptr, i8, i8, i16, i16, i16, i32, i16, i16, ptr, ptr, ptr, ptr, ptr, i32, i32 }
%struct.nstime_t = type { i64, i32 }
%struct._address = type { i32, i32, ptr, ptr }
%struct.anon = type { i8, [3 x i8] }

@hf_bgp_continuation = internal global i32 0, align 4
@ett_bgp = internal global i32 0, align 4
@proto_bgp = internal global i32 0, align 4
@bgp_desegment = internal global i8 1, align 1
@dissect_bgp.marker = internal global [16 x i8] c"\FF\FF\FF\FF\FF\FF\FF\FF\FF\FF\FF\FF\FF\FF\FF\FF", align 16
@.str.2673 = private unnamed_addr constant [16 x i8] c" - Continuation\00", align 1

; Function Attrs: null_pointer_is_valid sspstrong uwtable
define internal i32 @dissect_bgp(ptr noundef %0, ptr noundef %1, ptr noundef %2, ptr noundef %3) #0 {
  %5 = alloca i32, align 4
  %6 = alloca ptr, align 8
  %7 = alloca ptr, align 8
  %8 = alloca ptr, align 8
  %9 = alloca ptr, align 8
  %10 = alloca i32, align 4
  %11 = alloca ptr, align 8
  %12 = alloca ptr, align 8
  %13 = alloca ptr, align 8
  %14 = alloca i32, align 4
  store ptr %0, ptr %6, align 8
  store ptr %1, ptr %7, align 8
  store ptr %2, ptr %8, align 8
  store ptr %3, ptr %9, align 8
  call void @llvm.lifetime.start.p0(i64 4, ptr %10) #6
  store volatile i32 0, ptr %10, align 4
  call void @llvm.lifetime.start.p0(i64 8, ptr %11) #6
  call void @llvm.lifetime.start.p0(i64 8, ptr %12) #6
  call void @llvm.lifetime.start.p0(i64 8, ptr %13) #6
  br label %15

15:                                               ; preds = %37, %4
  %16 = load ptr, ptr %6, align 8
  %17 = load volatile i32, ptr %10, align 4
  %18 = call i32 @tvb_reported_length_remaining(ptr noundef %16, i32 noundef %17)
  %19 = icmp sgt i32 %18, 0
  br i1 %19, label %20, label %38

20:                                               ; preds = %15
  %21 = load ptr, ptr %6, align 8
  %22 = load volatile i32, ptr %10, align 4
  %23 = call i32 @tvb_find_uint16(ptr noundef %21, i32 noundef %22, i32 noundef -1, i16 noundef zeroext -1)
  store volatile i32 %23, ptr %10, align 4
  %24 = load volatile i32, ptr %10, align 4
  %25 = icmp slt i32 %24, 0
  br i1 %25, label %26, label %27

26:                                               ; preds = %20
  store i32 0, ptr %5, align 4
  store i32 1, ptr %14, align 4
  br label %72

27:                                               ; preds = %20
  %28 = load ptr, ptr %6, align 8
  %29 = load volatile i32, ptr %10, align 4
  %30 = call i32 @tvb_memeql(ptr noundef %28, i32 noundef %29, ptr noundef @dissect_bgp.marker, i64 noundef 16)
  %31 = icmp eq i32 0, %30
  br i1 %31, label %32, label %33

32:                                               ; preds = %27
  br label %38

33:                                               ; preds = %27
  %34 = load volatile i32, ptr %10, align 4
  %35 = add i32 %34, 1
  store volatile i32 %35, ptr %10, align 4
  br label %36

36:                                               ; preds = %33
  br label %37

37:                                               ; preds = %36
  br label %15, !llvm.loop !53

38:                                               ; preds = %32, %15
  %39 = load ptr, ptr %7, align 8
  %40 = getelementptr inbounds nuw %struct._packet_info, ptr %39, i32 0, i32 1
  %41 = load ptr, ptr %40, align 8
  call void @col_clear(ptr noundef %41, i32 noundef 25)
  %42 = load volatile i32, ptr %10, align 4
  %43 = icmp sgt i32 %42, 0
  br i1 %43, label %44, label %62

44:                                               ; preds = %38
  %45 = load ptr, ptr %8, align 8
  %46 = load i32, ptr @proto_bgp, align 4
  %47 = load ptr, ptr %6, align 8
  %48 = load volatile i32, ptr %10, align 4
  %49 = call ptr @proto_tree_add_item(ptr noundef %45, i32 noundef %46, ptr noundef %47, i32 noundef 0, i32 noundef %48, i32 noundef 0)
  store ptr %49, ptr %11, align 8
  %50 = load ptr, ptr %11, align 8
  %51 = load i32, ptr @ett_bgp, align 4
  %52 = call ptr @proto_item_add_subtree(ptr noundef %50, i32 noundef %51)
  store ptr %52, ptr %12, align 8
  %53 = load ptr, ptr %12, align 8
  call void (ptr, ptr, ...) @proto_item_append_text(ptr noundef %53, ptr noundef @.str.2673)
  %54 = load ptr, ptr %12, align 8
  %55 = load i32, ptr @hf_bgp_continuation, align 4
  %56 = load ptr, ptr %6, align 8
  %57 = load volatile i32, ptr %10, align 4
  %58 = call ptr @proto_tree_add_item(ptr noundef %54, i32 noundef %55, ptr noundef %56, i32 noundef 0, i32 noundef %57, i32 noundef 0)
  %59 = load ptr, ptr %6, align 8
  %60 = load volatile i32, ptr %10, align 4
  %61 = call ptr @tvb_new_subset_remaining(ptr noundef %59, i32 noundef %60)
  store volatile ptr %61, ptr %13, align 8
  br label %64

62:                                               ; preds = %38
  %63 = load ptr, ptr %6, align 8
  store volatile ptr %63, ptr %13, align 8
  br label %64

64:                                               ; preds = %62, %44
  %65 = load volatile ptr, ptr %13, align 8
  %66 = load ptr, ptr %7, align 8
  %67 = load ptr, ptr %8, align 8
  %68 = load i8, ptr @bgp_desegment, align 1, !range !29, !noundef !30
  %69 = trunc i8 %68 to i1
  call void @tcp_dissect_pdus(ptr noundef %65, ptr noundef %66, ptr noundef %67, i1 noundef zeroext %69, i32 noundef 19, ptr noundef @get_bgp_len, ptr noundef @dissect_bgp_pdu, ptr noundef null)
  %70 = load ptr, ptr %6, align 8
  %71 = call i32 @tvb_captured_length(ptr noundef %70)
  store i32 %71, ptr %5, align 4
  store i32 1, ptr %14, align 4
  br label %72

72:                                               ; preds = %64, %26
  call void @llvm.lifetime.end.p0(i64 8, ptr %13) #6
  call void @llvm.lifetime.end.p0(i64 8, ptr %12) #6
  call void @llvm.lifetime.end.p0(i64 8, ptr %11) #6
  call void @llvm.lifetime.end.p0(i64 4, ptr %10) #6
  %73 = load i32, ptr %5, align 4
  ret i32 %73
}