; Function Attrs: null_pointer_is_valid sspstrong uwtable
define internal i32 @dissect_bgp(ptr noundef %0, ptr noundef %1, ptr noundef %2, ptr readnone captures(none) %3) #0 {
  %5 = alloca i32, align 4
  %6 = alloca ptr, align 8
  call void @llvm.lifetime.start.p0(i64 4, ptr nonnull %5)
  store volatile i32 0, ptr %5, align 4
  call void @llvm.lifetime.start.p0(i64 8, ptr nonnull %6)
  %.0..0..0..0.425 = load volatile i32, ptr %5, align 4
  %7 = tail call i32 @tvb_reported_length_remaining(ptr noundef %0, i32 noundef %.0..0..0..0.425)
  %8 = icmp sgt i32 %7, 0
  br i1 %8, label %.lr.ph, label %._crit_edge

.lr.ph:                                           ; preds = %4, %14
  %.0..0..0..0.5 = load volatile i32, ptr %5, align 4
  %9 = tail call i32 @tvb_find_uint16(ptr noundef %0, i32 noundef %.0..0..0..0.5, i32 noundef -1, i16 noundef zeroext -1)
  store volatile i32 %9, ptr %5, align 4
  %.0..0..0..0.6 = load volatile i32, ptr %5, align 4
  %10 = icmp slt i32 %.0..0..0..0.6, 0
  br i1 %10, label %.loopexit, label %11

11:                                               ; preds = %.lr.ph
  %.0..0..0..0.7 = load volatile i32, ptr %5, align 4
  %12 = tail call i32 @tvb_memeql(ptr noundef %0, i32 noundef %.0..0..0..0.7, ptr noundef nonnull @dissect_bgp.marker, i64 noundef 16)
  %13 = icmp eq i32 %12, 0
  br i1 %13, label %._crit_edge, label %14

14:                                               ; preds = %11
  %.0..0..0..0.8 = load volatile i32, ptr %5, align 4
  %15 = add i32 %.0..0..0..0.8, 1
  store volatile i32 %15, ptr %5, align 4
  %.0..0..0..0.4 = load volatile i32, ptr %5, align 4
  %16 = tail call i32 @tvb_reported_length_remaining(ptr noundef %0, i32 noundef %.0..0..0..0.4)
  %17 = icmp sgt i32 %16, 0
  br i1 %17, label %.lr.ph, label %._crit_edge, !llvm.loop !55

._crit_edge:                                      ; preds = %14, %11, %4
  %18 = getelementptr inbounds nuw i8, ptr %1, i64 8
  %19 = load ptr, ptr %18, align 8
  tail call void @col_clear(ptr noundef %19, i32 noundef 25)
  %.0..0..0..0.9 = load volatile i32, ptr %5, align 4
  %20 = icmp sgt i32 %.0..0..0..0.9, 0
  br i1 %20, label %21, label %29

21:                                               ; preds = %._crit_edge
  %22 = load i32, ptr @proto_bgp, align 4
  %.0..0..0..0.10 = load volatile i32, ptr %5, align 4
  %23 = tail call ptr @proto_tree_add_item(ptr noundef %2, i32 noundef %22, ptr noundef %0, i32 noundef 0, i32 noundef %.0..0..0..0.10, i32 noundef 0)
  %24 = load i32, ptr @ett_bgp, align 4
  %25 = tail call ptr @proto_item_add_subtree(ptr noundef %23, i32 noundef %24)
  tail call void (ptr, ptr, ...) @proto_item_append_text(ptr noundef %25, ptr noundef nonnull @.str.2673)
  %26 = load i32, ptr @hf_bgp_continuation, align 4
  %.0..0..0..0.11 = load volatile i32, ptr %5, align 4
  %27 = tail call ptr @proto_tree_add_item(ptr noundef %25, i32 noundef %26, ptr noundef %0, i32 noundef 0, i32 noundef %.0..0..0..0.11, i32 noundef 0)
  %.0..0..0..0.12 = load volatile i32, ptr %5, align 4
  %28 = tail call ptr @tvb_new_subset_remaining(ptr noundef %0, i32 noundef %.0..0..0..0.12)
  br label %29

29:                                               ; preds = %._crit_edge, %21
  %.sink = phi ptr [ %28, %21 ], [ %0, %._crit_edge ]
  store volatile ptr %.sink, ptr %6, align 8
  %.0..0..0..0. = load volatile ptr, ptr %6, align 8
  %30 = load i8, ptr @bgp_desegment, align 1, !range !30, !noundef !31
  %31 = trunc nuw i8 %30 to i1
  tail call void @tcp_dissect_pdus(ptr noundef %.0..0..0..0., ptr noundef %1, ptr noundef %2, i1 noundef zeroext %31, i32 noundef 19, ptr noundef nonnull @get_bgp_len, ptr noundef nonnull @dissect_bgp_pdu, ptr noundef null)
  %32 = tail call i32 @tvb_captured_length(ptr noundef %0)
  br label %.loopexit

.loopexit:                                        ; preds = %.lr.ph, %29
  %.0 = phi i32 [ %32, %29 ], [ 0, %.lr.ph ]
  call void @llvm.lifetime.end.p0(i64 8, ptr nonnull %6)
  call void @llvm.lifetime.end.p0(i64 4, ptr nonnull %5)
  ret i32 %.0
}